; Function Attrs: mustprogress uwtable
define hidden noundef zeroext i1 @_ZNK2cv16BaseImageDecoder14checkSignatureERKNSt7__cxx1112basic_stringIcSt11char_traitsIcESaIcEEE(ptr noundef nonnull align 8 dereferenceable(368) %0, ptr noundef nonnull readonly align 8 captures(none) dereferenceable(32) %1) unnamed_addr #3 align 2 personality ptr @__gxx_personality_v0 {
  %3 = load ptr, ptr %0, align 8, !tbaa !3
  %4 = getelementptr inbounds nuw i8, ptr %3, i64 80
  %5 = load ptr, ptr %4, align 8
  %6 = tail call noundef i64 %5(ptr noundef nonnull align 8 dereferenceable(368) %0)
  %7 = getelementptr inbounds nuw i8, ptr %1, i64 8
  %8 = load i64, ptr %7, align 8, !tbaa !11
  %.not = icmp ult i64 %8, %6
  br i1 %.not, label %14, label %9

9:                                                ; preds = %2
  %10 = load ptr, ptr %1, align 8, !tbaa !60
  %11 = getelementptr inbounds nuw i8, ptr %0, i64 56
  %12 = load ptr, ptr %11, align 8, !tbaa !60
  %bcmp = tail call i32 @bcmp(ptr %10, ptr %12, i64 %6)
  %13 = icmp eq i32 %bcmp, 0
  br label %14

14:                                               ; preds = %9, %2
  %15 = phi i1 [ false, %2 ], [ %13, %9 ]
  ret i1 %15
}